target datalayout = "e-m:e-p270:32:32-p271:32:32-p272:64:64-i64:64-i128:128-f80:128-n8:16:32:64-S128"
target triple = "x86_64-unknown-linux-gnu"

%struct.USBWacomState = type { %struct.USBDevice, ptr, ptr, i32, i32, i32, i32, i32, i32, i32, i32, i8, i32 }
%struct.USBDevice = type { %struct.DeviceState, ptr, ptr, ptr, ptr, i32, ptr, ptr, i32, i32, i8, [32 x i8], i32, i8, i32, [8 x i8], [4096 x i8], i32, i32, i32, i32, %struct.USBEndpoint, [15 x %struct.USBEndpoint], [15 x %struct.USBEndpoint], %struct.anon, ptr, ptr, i32, i32, [16 x i32], ptr, [16 x ptr] }
%struct.DeviceState = type { %struct.Object, ptr, ptr, i8, i8, i64, ptr, i32, i8, ptr, %struct.NamedGPIOListHead, %struct.NamedClockListHead, %struct.BusStateHead, i32, i32, i32, %struct.ResettableState, ptr, %struct.MemReentrancyGuard }
%struct.Object = type { ptr, ptr, ptr, i32, ptr }
%struct.NamedGPIOListHead = type { ptr }
%struct.NamedClockListHead = type { ptr }
%struct.BusStateHead = type { ptr }
%struct.ResettableState = type { i32, i8, i8 }
%struct.MemReentrancyGuard = type { i8 }
%struct.USBEndpoint = type { i8, i8, i8, i8, i32, i32, i8, i8, ptr, %union.anon }
%union.anon = type { %struct.QTailQLink }
%struct.QTailQLink = type { ptr, ptr }
%struct.anon = type { ptr }

; Function Attrs: nounwind sspstrong uwtable
define internal void @usb_wacom_event(ptr noundef %opaque, i32 noundef %x, i32 noundef %y, i32 noundef %dz, i32 noundef %buttons_state) #0 {
entry:
  %opaque.addr = alloca ptr, align 8
  %x.addr = alloca i32, align 4
  %y.addr = alloca i32, align 4
  %dz.addr = alloca i32, align 4
  %buttons_state.addr = alloca i32, align 4
  %s = alloca ptr, align 8
  store ptr %opaque, ptr %opaque.addr, align 8
  store i32 %x, ptr %x.addr, align 4
  store i32 %y, ptr %y.addr, align 4
  store i32 %dz, ptr %dz.addr, align 4
  store i32 %buttons_state, ptr %buttons_state.addr, align 4
  %0 = load ptr, ptr %opaque.addr, align 8
  store ptr %0, ptr %s, align 8
  %1 = load i32, ptr %x.addr, align 4
  %mul = mul i32 %1, 5040
  %div = sdiv i32 %mul, 32767
  %2 = load ptr, ptr %s, align 8
  %x1 = getelementptr inbounds %struct.USBWacomState, ptr %2, i32 0, i32 7
  store i32 %div, ptr %x1, align 8
  %3 = load i32, ptr %y.addr, align 4
  %mul2 = mul i32 %3, 3780
  %div3 = sdiv i32 %mul2, 32767
  %4 = load ptr, ptr %s, align 8
  %y4 = getelementptr inbounds %struct.USBWacomState, ptr %4, i32 0, i32 8
  store i32 %div3, ptr %y4, align 4
  %5 = load i32, ptr %dz.addr, align 4
  %6 = load ptr, ptr %s, align 8
  %dz5 = getelementptr inbounds %struct.USBWacomState, ptr %6, i32 0, i32 5
  %7 = load i32, ptr %dz5, align 8
  %add = add i32 %7, %5
  store i32 %add, ptr %dz5, align 8
  %8 = load i32, ptr %buttons_state.addr, align 4
  %9 = load ptr, ptr %s, align 8
  %buttons_state6 = getelementptr inbounds %struct.USBWacomState, ptr %9, i32 0, i32 6
  store i32 %8, ptr %buttons_state6, align 4
  %10 = load ptr, ptr %s, align 8
  %changed = getelementptr inbounds %struct.USBWacomState, ptr %10, i32 0, i32 12
  store i32 1, ptr %changed, align 4
  %11 = load ptr, ptr %s, align 8
  %intr = getelementptr inbounds %struct.USBWacomState, ptr %11, i32 0, i32 1
  %12 = load ptr, ptr %intr, align 8
  call void @usb_wakeup(ptr noundef %12, i32 noundef 0)
  ret void
}