; Function Attrs: nounwind sspstrong uwtable
define internal void @usb_wacom_event(ptr noundef captures(none) initializes((5892, 5904), (5916, 5920)) %opaque, i32 noundef %x, i32 noundef %y, i32 noundef %dz, i32 noundef %buttons_state) #0 {
entry:
  %mul = mul i32 %x, 5040
  %div = sdiv i32 %mul, 32767
  %x1 = getelementptr inbounds nuw i8, ptr %opaque, i64 5896
  store i32 %div, ptr %x1, align 8
  %mul2 = mul i32 %y, 3780
  %div3 = sdiv i32 %mul2, 32767
  %y4 = getelementptr inbounds nuw i8, ptr %opaque, i64 5900
  store i32 %div3, ptr %y4, align 4
  %dz5 = getelementptr inbounds nuw i8, ptr %opaque, i64 5888
  %0 = load i32, ptr %dz5, align 8
  %add = add i32 %0, %dz
  store i32 %add, ptr %dz5, align 8
  %buttons_state6 = getelementptr inbounds nuw i8, ptr %opaque, i64 5892
  store i32 %buttons_state, ptr %buttons_state6, align 4
  %changed = getelementptr inbounds nuw i8, ptr %opaque, i64 5916
  store i32 1, ptr %changed, align 4
  %intr = getelementptr inbounds nuw i8, ptr %opaque, i64 5864
  %1 = load ptr, ptr %intr, align 8
  tail call void @usb_wakeup(ptr noundef %1, i32 noundef 0) #7
  ret void
}